target datalayout = "e-m:e-p270:32:32-p271:32:32-p272:64:64-i64:64-i128:128-f80:128-n8:16:32:64-S128"
target triple = "x86_64-pc-linux-gnu"

%struct.timeval = type { i64, i64 }
%union.pthread_mutex_t = type { %struct.__pthread_mutex_s }
%struct.__pthread_mutex_s = type { i32, i32, i32, i32, i32, i16, i16, %struct.__pthread_internal_list }
%struct.__pthread_internal_list = type { ptr, ptr }
%struct.settings = type { i64, i32, i32, i32, ptr, i32, i32, i32, ptr, ptr, i32, double, i32, i32, i32, i8, i32, i32, i8, i32, i32, i32, i32, i32, i32, i8, i8, i8, i8, i8, i8, i8, i32, i32, double, double, i32, i32, i8, i32, i8, i8, ptr, i32, i32, i32, i32, double, double, i32, i8, i32, i32, i32, i32, i32, i8, i8, i8, ptr, i32, i32, i32, i32, i32, i32, i32, i32, i32, i32, double, i8, i32, i32, ptr, i32 }
%struct.event = type { %struct.event_callback, %union.anon.1, i32, ptr, %union.anon.3, i16, i16, %struct.timeval }
%struct.event_callback = type { %struct.anon.0, i16, i8, i8, %union.anon, ptr }
%struct.anon.0 = type { ptr, ptr }
%union.anon = type { ptr }
%union.anon.1 = type { %struct.anon.2 }
%struct.anon.2 = type { ptr, ptr }
%union.anon.3 = type { %struct.anon.4 }
%struct.anon.4 = type { %struct.anon.5, %struct.timeval }
%struct.anon.5 = type { ptr, ptr }
%struct.conn = type { ptr, i32, i8, i8, i8, i8, i8, i8, i8, i8, ptr, i32, i32, i32, %struct.event, i16, i16, ptr, ptr, i32, i32, ptr, ptr, ptr, i32, ptr, i32, i32, i32, i32, i32, i32, i32, %struct.sockaddr_in6, i32, i8, %struct.anon.9, %union.protocol_binary_request_header, i64, i64, i16, i32, i32, ptr, ptr, ptr, ptr, ptr, ptr }
%struct.sockaddr_in6 = type { i16, i16, i32, %struct.in6_addr, i32 }
%struct.in6_addr = type { %union.anon.8 }
%union.anon.8 = type { [4 x i32] }
%struct.anon.9 = type { ptr, i64, i64 }
%union.protocol_binary_request_header = type { %struct.anon.10 }
%struct.anon.10 = type { i8, i8, i16, i8, i8, i16, i32, i32, i64 }
%struct.LIBEVENT_THREAD = type { i64, ptr, %struct.thread_notify, %struct.thread_notify, %union.pthread_mutex_t, %struct.iop_head_s, i32, i32, i32, %struct.thread_stats, [3 x %struct.io_queue_s], ptr, ptr, ptr, ptr, ptr, ptr, ptr, i32 }
%struct.thread_notify = type { %struct.event, i32 }
%struct.iop_head_s = type { ptr, ptr }
%struct.thread_stats = type { %union.pthread_mutex_t, i64, i64, i64, i64, i64, i64, i64, i64, i64, i64, i64, i64, i64, i64, i64, i64, i64, i64, i64, i64, i64, i64, i64, i64, i64, i64, i64, i64, i64, i64, [64 x %struct.slab_stats], [256 x i64], i64, i64, i64 }
%struct.slab_stats = type { i64, i64, i64, i64, i64, i64, i64, i64 }
%struct.io_queue_s = type { ptr, %struct.iop_head_s, ptr, i32 }

@settings = dso_local global %struct.settings zeroinitializer, align 8
@stderr = external global ptr, align 8
@.str.11 = private unnamed_addr constant [10 x i8] c"event_add\00", align 1
@.str.15 = private unnamed_addr constant [25 x i8] c"%d: going from %s to %s\0A\00", align 1

; Function Attrs: nounwind uwtable
define internal ptr @state_text(i32 noundef %0) #0 {
  %2 = alloca i32, align 4
  %3 = alloca [15 x ptr], align 16
  store i32 %0, ptr %2, align 4, !tbaa !8
  call void @llvm.lifetime.start.p0(i64 120, ptr %3) #15
  call void @llvm.memcpy.p0.p0.i64(ptr align 16 %3, ptr align 16 @__const.state_text.statenames, i64 120, i1 false)
  %4 = load i32, ptr %2, align 4, !tbaa !8
  %5 = zext i32 %4 to i64
  %6 = getelementptr inbounds nuw [15 x ptr], ptr %3, i64 0, i64 %5
  %7 = load ptr, ptr %6, align 8, !tbaa !29
  call void @llvm.lifetime.end.p0(i64 120, ptr %3) #15
  ret ptr %7
}

; Function Attrs: nounwind uwtable
define dso_local void @conn_set_state(ptr noundef %0, i32 noundef %1) #0 {
  %3 = alloca ptr, align 8
  %4 = alloca i32, align 4
  store ptr %0, ptr %3, align 8, !tbaa !10
  store i32 %1, ptr %4, align 4, !tbaa !8
  %5 = load i32, ptr %4, align 4, !tbaa !8
  %6 = load ptr, ptr %3, align 8, !tbaa !10
  %7 = getelementptr inbounds nuw %struct.conn, ptr %6, i32 0, i32 11
  %8 = load i32, ptr %7, align 8, !tbaa !50
  %9 = icmp ne i32 %5, %8
  br i1 %9, label %10, label %36

10:                                               ; preds = %2
  %11 = load i32, ptr getelementptr inbounds nuw (%struct.settings, ptr @settings, i32 0, i32 5), align 8, !tbaa !51
  %12 = icmp sgt i32 %11, 2
  br i1 %12, label %13, label %25

13:                                               ; preds = %10
  %14 = load ptr, ptr @stderr, align 8, !tbaa !52
  %15 = load ptr, ptr %3, align 8, !tbaa !10
  %16 = getelementptr inbounds nuw %struct.conn, ptr %15, i32 0, i32 1
  %17 = load i32, ptr %16, align 8, !tbaa !54
  %18 = load ptr, ptr %3, align 8, !tbaa !10
  %19 = getelementptr inbounds nuw %struct.conn, ptr %18, i32 0, i32 11
  %20 = load i32, ptr %19, align 8, !tbaa !50
  %21 = call ptr @state_text(i32 noundef %20)
  %22 = load i32, ptr %4, align 4, !tbaa !8
  %23 = call ptr @state_text(i32 noundef %22)
  %24 = call i32 (ptr, ptr, ...) @fprintf(ptr noundef %14, ptr noundef @.str.15, i32 noundef %17, ptr noundef %21, ptr noundef %23) #15
  br label %25

25:                                               ; preds = %13, %10
  %26 = load i32, ptr %4, align 4, !tbaa !8
  %27 = icmp eq i32 %26, 5
  br i1 %27, label %31, label %28

28:                                               ; preds = %25
  %29 = load i32, ptr %4, align 4, !tbaa !8
  %30 = icmp eq i32 %29, 9
  br i1 %30, label %31, label %32

31:                                               ; preds = %28, %25
  br label %32

32:                                               ; preds = %31, %28
  %33 = load i32, ptr %4, align 4, !tbaa !8
  %34 = load ptr, ptr %3, align 8, !tbaa !10
  %35 = getelementptr inbounds nuw %struct.conn, ptr %34, i32 0, i32 11
  store i32 %33, ptr %35, align 8, !tbaa !50
  br label %36

36:                                               ; preds = %32, %2
  ret void
}

; Function Attrs: nounwind uwtable
define internal void @_conn_event_readd(ptr noundef %0) #0 {
  %2 = alloca ptr, align 8
  store ptr %0, ptr %2, align 8, !tbaa !10
  %3 = load ptr, ptr %2, align 8, !tbaa !10
  %4 = getelementptr inbounds nuw %struct.conn, ptr %3, i32 0, i32 15
  store i16 18, ptr %4, align 8, !tbaa !89
  %5 = load ptr, ptr %2, align 8, !tbaa !10
  %6 = getelementptr inbounds nuw %struct.conn, ptr %5, i32 0, i32 14
  %7 = load ptr, ptr %2, align 8, !tbaa !10
  %8 = getelementptr inbounds nuw %struct.conn, ptr %7, i32 0, i32 1
  %9 = load i32, ptr %8, align 8, !tbaa !54
  %10 = load ptr, ptr %2, align 8, !tbaa !10
  %11 = getelementptr inbounds nuw %struct.conn, ptr %10, i32 0, i32 15
  %12 = load i16, ptr %11, align 8, !tbaa !89
  %13 = load ptr, ptr %2, align 8, !tbaa !10
  call void @event_set(ptr noundef %6, i32 noundef %9, i16 noundef signext %12, ptr noundef @event_handler, ptr noundef %13)
  %14 = load ptr, ptr %2, align 8, !tbaa !10
  %15 = getelementptr inbounds nuw %struct.conn, ptr %14, i32 0, i32 44
  %16 = load ptr, ptr %15, align 8, !tbaa !32
  %17 = getelementptr inbounds nuw %struct.LIBEVENT_THREAD, ptr %16, i32 0, i32 1
  %18 = load ptr, ptr %17, align 8, !tbaa !90
  %19 = load ptr, ptr %2, align 8, !tbaa !10
  %20 = getelementptr inbounds nuw %struct.conn, ptr %19, i32 0, i32 14
  %21 = call i32 @event_base_set(ptr noundef %18, ptr noundef %20)
  %22 = load ptr, ptr %2, align 8, !tbaa !10
  %23 = getelementptr inbounds nuw %struct.conn, ptr %22, i32 0, i32 14
  %24 = call i32 @event_add(ptr noundef %23, ptr noundef null)
  %25 = icmp eq i32 %24, -1
  br i1 %25, label %26, label %27

26:                                               ; preds = %1
  call void @perror(ptr noundef @.str.11)
  br label %27

27:                                               ; preds = %26, %1
  ret void
}

; Function Attrs: nounwind uwtable
define dso_local void @conn_worker_readd(ptr noundef %0) #0 {
  %2 = alloca ptr, align 8
  store ptr %0, ptr %2, align 8, !tbaa !10
  %3 = load ptr, ptr %2, align 8, !tbaa !10
  %4 = getelementptr inbounds nuw %struct.conn, ptr %3, i32 0, i32 11
  %5 = load i32, ptr %4, align 8, !tbaa !50
  switch i32 %5, label %15 [
    i32 8, label %6
    i32 14, label %8
    i32 12, label %10
    i32 5, label %14
    i32 9, label %14
    i32 3, label %14
    i32 4, label %14
  ]

6:                                                ; preds = %1
  %7 = load ptr, ptr %2, align 8, !tbaa !10
  call void @drive_machine(ptr noundef %7)
  br label %21

8:                                                ; preds = %1
  %9 = load ptr, ptr %2, align 8, !tbaa !10
  call void @_conn_event_readd(ptr noundef %9)
  br label %10

10:                                               ; preds = %1, %8
  %11 = load ptr, ptr %2, align 8, !tbaa !10
  call void @conn_set_state(ptr noundef %11, i32 noundef 13)
  %12 = load ptr, ptr %2, align 8, !tbaa !10
  %13 = getelementptr inbounds nuw %struct.conn, ptr %12, i32 0, i32 14
  call void @event_active(ptr noundef %13, i32 noundef 0, i16 noundef signext 0)
  br label %21

14:                                               ; preds = %1, %1, %1, %1
  br label %21

15:                                               ; preds = %1
  %16 = load ptr, ptr %2, align 8, !tbaa !10
  %17 = getelementptr inbounds nuw %struct.conn, ptr %16, i32 0, i32 14
  %18 = call i32 @event_del(ptr noundef %17)
  %19 = load ptr, ptr %2, align 8, !tbaa !10
  call void @_conn_event_readd(ptr noundef %19)
  %20 = load ptr, ptr %2, align 8, !tbaa !10
  call void @conn_set_state(ptr noundef %20, i32 noundef 1)
  br label %21

21:                                               ; preds = %15, %14, %10, %6
  ret void
}