; Function Attrs: nounwind uwtable
define dso_local void @conn_worker_readd(ptr noundef %0) local_unnamed_addr #1 {
  %2 = getelementptr inbounds nuw i8, ptr %0, i64 32
  %3 = load i32, ptr %2, align 8, !tbaa !48
  switch i32 %3, label %31 [
    i32 8, label %4
    i32 14, label %5
    i32 12, label %_conn_event_readd.exit.thread
    i32 5, label %conn_set_state.exit10
    i32 9, label %conn_set_state.exit10
    i32 3, label %conn_set_state.exit10
    i32 4, label %conn_set_state.exit10
  ]

4:                                                ; preds = %1
  tail call fastcc void @drive_machine(ptr noundef nonnull %0)
  br label %conn_set_state.exit10

5:                                                ; preds = %1
  %6 = getelementptr inbounds nuw i8, ptr %0, i64 176
  store i16 18, ptr %6, align 8, !tbaa !69
  %7 = getelementptr inbounds nuw i8, ptr %0, i64 48
  %8 = getelementptr inbounds nuw i8, ptr %0, i64 8
  %9 = load i32, ptr %8, align 8, !tbaa !52
  tail call void @event_set(ptr noundef nonnull %7, i32 noundef %9, i16 noundef signext 18, ptr noundef nonnull @event_handler, ptr noundef nonnull %0) #34
  %10 = getelementptr inbounds nuw i8, ptr %0, i64 400
  %11 = load ptr, ptr %10, align 8, !tbaa !30
  %12 = getelementptr inbounds nuw i8, ptr %11, i64 8
  %13 = load ptr, ptr %12, align 8, !tbaa !131
  %14 = tail call i32 @event_base_set(ptr noundef %13, ptr noundef nonnull %7) #34
  %15 = tail call i32 @event_add(ptr noundef nonnull %7, ptr noundef null) #34
  %16 = icmp eq i32 %15, -1
  br i1 %16, label %17, label %_conn_event_readd.exit

17:                                               ; preds = %5
  tail call void @perror(ptr noundef nonnull @.str.11) #38
  br label %_conn_event_readd.exit

_conn_event_readd.exit:                           ; preds = %17, %5
  %.pr = load i32, ptr %2, align 8, !tbaa !48
  %.not.i = icmp eq i32 %.pr, 13
  br i1 %.not.i, label %conn_set_state.exit, label %_conn_event_readd.exit.thread

_conn_event_readd.exit.thread:                    ; preds = %1, %_conn_event_readd.exit
  %18 = phi i32 [ %.pr, %_conn_event_readd.exit ], [ %3, %1 ]
  %19 = load i32, ptr getelementptr inbounds nuw (i8, ptr @settings, i64 32), align 8, !tbaa !49
  %20 = icmp sgt i32 %19, 2
  br i1 %20, label %21, label %29

21:                                               ; preds = %_conn_event_readd.exit.thread
  %22 = load ptr, ptr @stderr, align 8, !tbaa !50
  %23 = getelementptr inbounds nuw i8, ptr %0, i64 8
  %24 = load i32, ptr %23, align 8, !tbaa !52
  %25 = zext i32 %18 to i64
  %26 = getelementptr inbounds nuw [15 x ptr], ptr @__const.state_text.statenames, i64 0, i64 %25
  %27 = load ptr, ptr %26, align 8, !tbaa !55
  %28 = tail call i32 (ptr, ptr, ...) @fprintf(ptr noundef %22, ptr noundef nonnull @.str.15, i32 noundef %24, ptr noundef %27, ptr noundef nonnull @.str.380) #36
  br label %29

29:                                               ; preds = %21, %_conn_event_readd.exit.thread
  store i32 13, ptr %2, align 8, !tbaa !48
  br label %conn_set_state.exit

conn_set_state.exit:                              ; preds = %_conn_event_readd.exit, %29
  %30 = getelementptr inbounds nuw i8, ptr %0, i64 48
  tail call void @event_active(ptr noundef nonnull %30, i32 noundef 0, i16 noundef signext 0) #34
  br label %conn_set_state.exit10

31:                                               ; preds = %1
  %32 = getelementptr inbounds nuw i8, ptr %0, i64 48
  %33 = tail call i32 @event_del(ptr noundef nonnull %32) #34
  %34 = getelementptr inbounds nuw i8, ptr %0, i64 176
  store i16 18, ptr %34, align 8, !tbaa !69
  %35 = getelementptr inbounds nuw i8, ptr %0, i64 8
  %36 = load i32, ptr %35, align 8, !tbaa !52
  tail call void @event_set(ptr noundef nonnull %32, i32 noundef %36, i16 noundef signext 18, ptr noundef nonnull @event_handler, ptr noundef nonnull %0) #34
  %37 = getelementptr inbounds nuw i8, ptr %0, i64 400
  %38 = load ptr, ptr %37, align 8, !tbaa !30
  %39 = getelementptr inbounds nuw i8, ptr %38, i64 8
  %40 = load ptr, ptr %39, align 8, !tbaa !131
  %41 = tail call i32 @event_base_set(ptr noundef %40, ptr noundef nonnull %32) #34
  %42 = tail call i32 @event_add(ptr noundef nonnull %32, ptr noundef null) #34
  %43 = icmp eq i32 %42, -1
  br i1 %43, label %44, label %_conn_event_readd.exit8

44:                                               ; preds = %31
  tail call void @perror(ptr noundef nonnull @.str.11) #38
  br label %_conn_event_readd.exit8

_conn_event_readd.exit8:                          ; preds = %31, %44
  %45 = load i32, ptr %2, align 8, !tbaa !48
  %.not.i9 = icmp eq i32 %45, 1
  br i1 %.not.i9, label %conn_set_state.exit10, label %46

46:                                               ; preds = %_conn_event_readd.exit8
  %47 = load i32, ptr getelementptr inbounds nuw (i8, ptr @settings, i64 32), align 8, !tbaa !49
  %48 = icmp sgt i32 %47, 2
  br i1 %48, label %49, label %56

49:                                               ; preds = %46
  %50 = load ptr, ptr @stderr, align 8, !tbaa !50
  %51 = load i32, ptr %35, align 8, !tbaa !52
  %52 = zext i32 %45 to i64
  %53 = getelementptr inbounds nuw [15 x ptr], ptr @__const.state_text.statenames, i64 0, i64 %52
  %54 = load ptr, ptr %53, align 8, !tbaa !55
  %55 = tail call i32 (ptr, ptr, ...) @fprintf(ptr noundef %50, ptr noundef nonnull @.str.15, i32 noundef %51, ptr noundef %54, ptr noundef nonnull @.str.368) #36
  br label %56

56:                                               ; preds = %49, %46
  store i32 1, ptr %2, align 8, !tbaa !48
  br label %conn_set_state.exit10

conn_set_state.exit10:                            ; preds = %56, %_conn_event_readd.exit8, %1, %1, %1, %1, %conn_set_state.exit, %4
  ret void
}